target datalayout = "e-m:e-p270:32:32-p271:32:32-p272:64:64-i64:64-i128:128-f80:128-n8:16:32:64-S128"
target triple = "x86_64-pc-linux-gnu"

%struct._wmem_block_allocator_t = type { ptr, ptr, ptr }
%struct._wmem_block_hdr_t = type { ptr, ptr }
%struct._wmem_block_free_t = type { ptr, ptr }
%struct._wmem_block_chunk_t = type { i32, i32 }

; Function Attrs: nounwind null_pointer_is_valid sspstrong uwtable
define internal void @wmem_block_push_master(ptr noundef %0, ptr noundef %1) #5 {
  %3 = alloca ptr, align 8
  %4 = alloca ptr, align 8
  %5 = alloca ptr, align 8
  store ptr %0, ptr %3, align 8
  store ptr %1, ptr %4, align 8
  call void @llvm.lifetime.start.p0(i64 8, ptr %5) #10
  %6 = load ptr, ptr %4, align 8
  %7 = getelementptr i8, ptr %6, i64 16
  store ptr %7, ptr %5, align 8
  %8 = load ptr, ptr %5, align 8
  %9 = getelementptr inbounds nuw %struct._wmem_block_free_t, ptr %8, i32 0, i32 0
  store ptr null, ptr %9, align 8
  %10 = load ptr, ptr %3, align 8
  %11 = getelementptr inbounds nuw %struct._wmem_block_allocator_t, ptr %10, i32 0, i32 1
  %12 = load ptr, ptr %11, align 8
  %13 = load ptr, ptr %5, align 8
  %14 = getelementptr inbounds nuw %struct._wmem_block_free_t, ptr %13, i32 0, i32 1
  store ptr %12, ptr %14, align 8
  %15 = load ptr, ptr %5, align 8
  %16 = getelementptr inbounds nuw %struct._wmem_block_free_t, ptr %15, i32 0, i32 1
  %17 = load ptr, ptr %16, align 8
  %18 = icmp ne ptr %17, null
  br i1 %18, label %19, label %26

19:                                               ; preds = %2
  %20 = load ptr, ptr %4, align 8
  %21 = load ptr, ptr %5, align 8
  %22 = getelementptr inbounds nuw %struct._wmem_block_free_t, ptr %21, i32 0, i32 1
  %23 = load ptr, ptr %22, align 8
  %24 = getelementptr i8, ptr %23, i64 16
  %25 = getelementptr inbounds nuw %struct._wmem_block_free_t, ptr %24, i32 0, i32 0
  store ptr %20, ptr %25, align 8
  br label %26

26:                                               ; preds = %19, %2
  %27 = load ptr, ptr %4, align 8
  %28 = load ptr, ptr %3, align 8
  %29 = getelementptr inbounds nuw %struct._wmem_block_allocator_t, ptr %28, i32 0, i32 1
  store ptr %27, ptr %29, align 8
  call void @llvm.lifetime.end.p0(i64 8, ptr %5) #10
  ret void
}

; Function Attrs: null_pointer_is_valid sspstrong uwtable
define internal void @wmem_block_init_block(ptr noundef %0, ptr noundef %1) #0 {
  %3 = alloca ptr, align 8
  %4 = alloca ptr, align 8
  %5 = alloca ptr, align 8
  store ptr %0, ptr %3, align 8
  store ptr %1, ptr %4, align 8
  call void @llvm.lifetime.start.p0(i64 8, ptr %5) #10
  %6 = load ptr, ptr %4, align 8
  %7 = getelementptr i8, ptr %6, i64 16
  store ptr %7, ptr %5, align 8
  %8 = load ptr, ptr %5, align 8
  %9 = getelementptr inbounds nuw %struct._wmem_block_chunk_t, ptr %8, i32 0, i32 1
  %10 = load i32, ptr %9, align 4
  %11 = and i32 %10, -3
  %12 = or i32 %11, 0
  store i32 %12, ptr %9, align 4
  %13 = load ptr, ptr %5, align 8
  %14 = getelementptr inbounds nuw %struct._wmem_block_chunk_t, ptr %13, i32 0, i32 1
  %15 = load i32, ptr %14, align 4
  %16 = and i32 %15, -5
  %17 = or i32 %16, 0
  store i32 %17, ptr %14, align 4
  %18 = load ptr, ptr %5, align 8
  %19 = getelementptr inbounds nuw %struct._wmem_block_chunk_t, ptr %18, i32 0, i32 1
  %20 = load i32, ptr %19, align 4
  %21 = and i32 %20, -2
  %22 = or i32 %21, 1
  store i32 %22, ptr %19, align 4
  %23 = load ptr, ptr %5, align 8
  %24 = getelementptr inbounds nuw %struct._wmem_block_chunk_t, ptr %23, i32 0, i32 0
  store i32 0, ptr %24, align 4
  %25 = load ptr, ptr %5, align 8
  %26 = getelementptr inbounds nuw %struct._wmem_block_chunk_t, ptr %25, i32 0, i32 1
  %27 = load i32, ptr %26, align 4
  %28 = and i32 %27, 7
  %29 = or i32 %28, 67108736
  store i32 %29, ptr %26, align 4
  %30 = load ptr, ptr %3, align 8
  %31 = load ptr, ptr %5, align 8
  call void @wmem_block_push_master(ptr noundef %30, ptr noundef %31)
  call void @llvm.lifetime.end.p0(i64 8, ptr %5) #10
  ret void
}

; Function Attrs: nounwind null_pointer_is_valid sspstrong uwtable
define internal void @wmem_block_remove_from_block_list(ptr noundef %0, ptr noundef %1) #5 {
  %3 = alloca ptr, align 8
  %4 = alloca ptr, align 8
  store ptr %0, ptr %3, align 8
  store ptr %1, ptr %4, align 8
  %5 = load ptr, ptr %4, align 8
  %6 = getelementptr inbounds nuw %struct._wmem_block_hdr_t, ptr %5, i32 0, i32 0
  %7 = load ptr, ptr %6, align 8
  %8 = icmp ne ptr %7, null
  br i1 %8, label %9, label %17

9:                                                ; preds = %2
  %10 = load ptr, ptr %4, align 8
  %11 = getelementptr inbounds nuw %struct._wmem_block_hdr_t, ptr %10, i32 0, i32 1
  %12 = load ptr, ptr %11, align 8
  %13 = load ptr, ptr %4, align 8
  %14 = getelementptr inbounds nuw %struct._wmem_block_hdr_t, ptr %13, i32 0, i32 0
  %15 = load ptr, ptr %14, align 8
  %16 = getelementptr inbounds nuw %struct._wmem_block_hdr_t, ptr %15, i32 0, i32 1
  store ptr %12, ptr %16, align 8
  br label %23

17:                                               ; preds = %2
  %18 = load ptr, ptr %4, align 8
  %19 = getelementptr inbounds nuw %struct._wmem_block_hdr_t, ptr %18, i32 0, i32 1
  %20 = load ptr, ptr %19, align 8
  %21 = load ptr, ptr %3, align 8
  %22 = getelementptr inbounds nuw %struct._wmem_block_allocator_t, ptr %21, i32 0, i32 0
  store ptr %20, ptr %22, align 8
  br label %23

23:                                               ; preds = %17, %9
  %24 = load ptr, ptr %4, align 8
  %25 = getelementptr inbounds nuw %struct._wmem_block_hdr_t, ptr %24, i32 0, i32 1
  %26 = load ptr, ptr %25, align 8
  %27 = icmp ne ptr %26, null
  br i1 %27, label %28, label %36

28:                                               ; preds = %23
  %29 = load ptr, ptr %4, align 8
  %30 = getelementptr inbounds nuw %struct._wmem_block_hdr_t, ptr %29, i32 0, i32 0
  %31 = load ptr, ptr %30, align 8
  %32 = load ptr, ptr %4, align 8
  %33 = getelementptr inbounds nuw %struct._wmem_block_hdr_t, ptr %32, i32 0, i32 1
  %34 = load ptr, ptr %33, align 8
  %35 = getelementptr inbounds nuw %struct._wmem_block_hdr_t, ptr %34, i32 0, i32 0
  store ptr %31, ptr %35, align 8
  br label %36

36:                                               ; preds = %28, %23
  ret void
}

; Function Attrs: null_pointer_is_valid sspstrong uwtable
define internal void @wmem_block_free_all(ptr noundef %0) #0 {
  %2 = alloca ptr, align 8
  %3 = alloca ptr, align 8
  %4 = alloca ptr, align 8
  %5 = alloca ptr, align 8
  store ptr %0, ptr %2, align 8
  call void @llvm.lifetime.start.p0(i64 8, ptr %3) #10
  %6 = load ptr, ptr %2, align 8
  store ptr %6, ptr %3, align 8
  call void @llvm.lifetime.start.p0(i64 8, ptr %4) #10
  call void @llvm.lifetime.start.p0(i64 8, ptr %5) #10
  %7 = load ptr, ptr %3, align 8
  %8 = getelementptr inbounds nuw %struct._wmem_block_allocator_t, ptr %7, i32 0, i32 1
  store ptr null, ptr %8, align 8
  %9 = load ptr, ptr %3, align 8
  %10 = getelementptr inbounds nuw %struct._wmem_block_allocator_t, ptr %9, i32 0, i32 2
  store ptr null, ptr %10, align 8
  %11 = load ptr, ptr %3, align 8
  %12 = getelementptr inbounds nuw %struct._wmem_block_allocator_t, ptr %11, i32 0, i32 0
  %13 = load ptr, ptr %12, align 8
  store ptr %13, ptr %4, align 8
  br label %14

14:                                               ; preds = %40, %1
  %15 = load ptr, ptr %4, align 8
  %16 = icmp ne ptr %15, null
  br i1 %16, label %17, label %41

17:                                               ; preds = %14
  %18 = load ptr, ptr %4, align 8
  %19 = getelementptr i8, ptr %18, i64 16
  store ptr %19, ptr %5, align 8
  %20 = load ptr, ptr %5, align 8
  %21 = getelementptr inbounds nuw %struct._wmem_block_chunk_t, ptr %20, i32 0, i32 1
  %22 = load i32, ptr %21, align 4
  %23 = lshr i32 %22, 2
  %24 = and i32 %23, 1
  %25 = icmp ne i32 %24, 0
  br i1 %25, label %26, label %34

26:                                               ; preds = %17
  %27 = load ptr, ptr %3, align 8
  %28 = load ptr, ptr %4, align 8
  call void @wmem_block_remove_from_block_list(ptr noundef %27, ptr noundef %28)
  %29 = load ptr, ptr %4, align 8
  %30 = getelementptr inbounds nuw %struct._wmem_block_hdr_t, ptr %29, i32 0, i32 1
  %31 = load ptr, ptr %30, align 8
  store ptr %31, ptr %4, align 8
  %32 = load ptr, ptr %5, align 8
  %33 = getelementptr i8, ptr %32, i64 -16
  call void @wmem_free(ptr noundef null, ptr noundef %33)
  br label %40

34:                                               ; preds = %17
  %35 = load ptr, ptr %3, align 8
  %36 = load ptr, ptr %4, align 8
  call void @wmem_block_init_block(ptr noundef %35, ptr noundef %36)
  %37 = load ptr, ptr %4, align 8
  %38 = getelementptr inbounds nuw %struct._wmem_block_hdr_t, ptr %37, i32 0, i32 1
  %39 = load ptr, ptr %38, align 8
  store ptr %39, ptr %4, align 8
  br label %40

40:                                               ; preds = %34, %26
  br label %14, !llvm.loop !11

41:                                               ; preds = %14
  call void @llvm.lifetime.end.p0(i64 8, ptr %5) #10
  call void @llvm.lifetime.end.p0(i64 8, ptr %4) #10
  call void @llvm.lifetime.end.p0(i64 8, ptr %3) #10
  ret void
}