; Function Attrs: null_pointer_is_valid sspstrong uwtable
define internal void @wmem_block_free_all(ptr noundef captures(none) initializes((8, 24)) %0) #0 {
  %2 = getelementptr inbounds nuw i8, ptr %0, i64 8
  tail call void @llvm.memset.p0.i64(ptr noundef nonnull align 8 dereferenceable(16) %2, i8 0, i64 16, i1 false)
  %3 = load ptr, ptr %0, align 8
  %.not15 = icmp eq ptr %3, null
  br i1 %.not15, label %._crit_edge, label %.lr.ph

.lr.ph:                                           ; preds = %1, %27
  %.016 = phi ptr [ %.1, %27 ], [ %3, %1 ]
  %4 = getelementptr i8, ptr %.016, i64 20
  %5 = load i32, ptr %4, align 4
  %6 = and i32 %5, 4
  %.not14 = icmp eq i32 %6, 0
  br i1 %.not14, label %18, label %7

7:                                                ; preds = %.lr.ph
  %8 = load ptr, ptr %.016, align 8
  %.not.i = icmp eq ptr %8, null
  %9 = getelementptr inbounds nuw i8, ptr %.016, i64 8
  %10 = load ptr, ptr %9, align 8
  br i1 %.not.i, label %13, label %11

11:                                               ; preds = %7
  %12 = getelementptr inbounds nuw i8, ptr %8, i64 8
  store ptr %10, ptr %12, align 8
  br label %14

13:                                               ; preds = %7
  store ptr %10, ptr %0, align 8
  br label %14

14:                                               ; preds = %13, %11
  %.not9.i = icmp eq ptr %10, null
  br i1 %.not9.i, label %wmem_block_remove_from_block_list.exit, label %15

15:                                               ; preds = %14
  %16 = load ptr, ptr %.016, align 8
  store ptr %16, ptr %10, align 8
  br label %wmem_block_remove_from_block_list.exit

wmem_block_remove_from_block_list.exit:           ; preds = %14, %15
  %17 = load ptr, ptr %9, align 8
  tail call void @wmem_free(ptr noundef null, ptr noundef nonnull %.016)
  br label %27

18:                                               ; preds = %.lr.ph
  %19 = getelementptr i8, ptr %.016, i64 16
  store i32 0, ptr %19, align 4
  store i32 67108737, ptr %4, align 4
  %20 = getelementptr i8, ptr %.016, i64 32
  store ptr null, ptr %20, align 8
  %21 = load ptr, ptr %2, align 8
  %22 = getelementptr i8, ptr %.016, i64 40
  store ptr %21, ptr %22, align 8
  %.not.i.i = icmp eq ptr %21, null
  br i1 %.not.i.i, label %wmem_block_init_block.exit, label %23

23:                                               ; preds = %18
  %24 = getelementptr i8, ptr %21, i64 16
  store ptr %19, ptr %24, align 8
  br label %wmem_block_init_block.exit

wmem_block_init_block.exit:                       ; preds = %18, %23
  store ptr %19, ptr %2, align 8
  %25 = getelementptr inbounds nuw i8, ptr %.016, i64 8
  %26 = load ptr, ptr %25, align 8
  br label %27

27:                                               ; preds = %wmem_block_init_block.exit, %wmem_block_remove_from_block_list.exit
  %.1 = phi ptr [ %17, %wmem_block_remove_from_block_list.exit ], [ %26, %wmem_block_init_block.exit ]
  %.not = icmp eq ptr %.1, null
  br i1 %.not, label %._crit_edge, label %.lr.ph, !llvm.loop !13

._crit_edge:                                      ; preds = %27, %1
  ret void
}